; Function Attrs: nounwind uwtable
define dso_local i64 @cash_div_int4(ptr noundef readonly captures(none) %0) local_unnamed_addr #0 {
  %2 = getelementptr inbounds nuw i8, ptr %0, i64 48
  %3 = load i64, ptr %2, align 8
  %sext = shl i64 %3, 32
  %4 = icmp eq i64 %sext, 0
  br i1 %4, label %5, label %cash_div_int64.exit, !prof !17

5:                                                ; preds = %1
  %6 = tail call zeroext i1 @errstart_cold(i32 noundef 21, ptr noundef null) #16
  tail call void @llvm.assume(i1 %6)
  %7 = tail call i32 @errcode(i32 noundef 33816706) #13
  %8 = tail call i32 (ptr, ...) @errmsg(ptr noundef nonnull @.str.13) #13
  tail call void @errfinish(ptr noundef nonnull @.str.7, i32 noundef 161, ptr noundef nonnull @__func__.cash_div_int64) #13
  unreachable

cash_div_int64.exit:                              ; preds = %1
  %9 = ashr exact i64 %sext, 32
  %10 = getelementptr inbounds nuw i8, ptr %0, i64 32
  %11 = load i64, ptr %10, align 8
  %12 = sdiv i64 %11, %9
  ret i64 %12
}